target datalayout = "e-m:e-p270:32:32-p271:32:32-p272:64:64-i64:64-i128:128-f80:128-n8:16:32:64-S128"
target triple = "x86_64-pc-linux-gnu"

%struct.gmx_ana_index_t = type { i32, ptr, i32 }

; Function Attrs: mustprogress nounwind uwtable
define noundef zeroext i1 @_Z25gmx_ana_index_check_rangeP15gmx_ana_index_ti(ptr noundef %0, i32 noundef %1) #1 {
  %3 = alloca i1, align 1
  %4 = alloca ptr, align 8
  %5 = alloca i32, align 4
  %6 = alloca i32, align 4
  %7 = alloca i32, align 4
  store ptr %0, ptr %4, align 8, !tbaa !232
  store i32 %1, ptr %5, align 4, !tbaa !114
  call void @llvm.lifetime.start.p0(i64 4, ptr %6) #19
  store i32 0, ptr %6, align 4, !tbaa !114
  br label %8

8:                                                ; preds = %36, %2
  %9 = load i32, ptr %6, align 4, !tbaa !114
  %10 = load ptr, ptr %4, align 8, !tbaa !232
  %11 = getelementptr inbounds nuw %struct.gmx_ana_index_t, ptr %10, i32 0, i32 0
  %12 = load i32, ptr %11, align 8, !tbaa !234
  %13 = icmp slt i32 %9, %12
  br i1 %13, label %15, label %14

14:                                               ; preds = %8
  store i32 2, ptr %7, align 4
  br label %39

15:                                               ; preds = %8
  %16 = load ptr, ptr %4, align 8, !tbaa !232
  %17 = getelementptr inbounds nuw %struct.gmx_ana_index_t, ptr %16, i32 0, i32 1
  %18 = load ptr, ptr %17, align 8, !tbaa !236
  %19 = load i32, ptr %6, align 4, !tbaa !114
  %20 = sext i32 %19 to i64
  %21 = getelementptr inbounds i32, ptr %18, i64 %20
  %22 = load i32, ptr %21, align 4, !tbaa !114
  %23 = icmp slt i32 %22, 0
  br i1 %23, label %34, label %24

24:                                               ; preds = %15
  %25 = load ptr, ptr %4, align 8, !tbaa !232
  %26 = getelementptr inbounds nuw %struct.gmx_ana_index_t, ptr %25, i32 0, i32 1
  %27 = load ptr, ptr %26, align 8, !tbaa !236
  %28 = load i32, ptr %6, align 4, !tbaa !114
  %29 = sext i32 %28 to i64
  %30 = getelementptr inbounds i32, ptr %27, i64 %29
  %31 = load i32, ptr %30, align 4, !tbaa !114
  %32 = load i32, ptr %5, align 4, !tbaa !114
  %33 = icmp sge i32 %31, %32
  br i1 %33, label %34, label %35

34:                                               ; preds = %24, %15
  store i1 false, ptr %3, align 1
  store i32 1, ptr %7, align 4
  br label %39

35:                                               ; preds = %24
  br label %36

36:                                               ; preds = %35
  %37 = load i32, ptr %6, align 4, !tbaa !114
  %38 = add nsw i32 %37, 1
  store i32 %38, ptr %6, align 4, !tbaa !114
  br label %8, !llvm.loop !313

39:                                               ; preds = %34, %14
  call void @llvm.lifetime.end.p0(i64 4, ptr %6) #19
  %40 = load i32, ptr %7, align 4
  switch i32 %40, label %44 [
    i32 2, label %41
    i32 1, label %42
  ]

41:                                               ; preds = %39
  store i1 true, ptr %3, align 1
  br label %42

42:                                               ; preds = %41, %39
  %43 = load i1, ptr %3, align 1
  ret i1 %43

44:                                               ; preds = %39
  unreachable
}