; Function Attrs: mustprogress nofree norecurse nosync nounwind willreturn memory(read, inaccessiblemem: none) uwtable
define noundef zeroext i1 @_Z25gmx_ana_index_check_rangeP15gmx_ana_index_ti(ptr noundef readonly captures(none) %0, i32 noundef %1) local_unnamed_addr #18 {
  %3 = load i32, ptr %0, align 8, !tbaa !73
  %4 = icmp slt i32 %3, 1
  br i1 %4, label %._crit_edge, label %.lr.ph

.lr.ph:                                           ; preds = %2
  %5 = getelementptr inbounds nuw i8, ptr %0, i64 8
  %6 = load ptr, ptr %5, align 8, !tbaa !108
  %wide.trip.count = zext nneg i32 %3 to i64
  br label %7

7:                                                ; preds = %7, %.lr.ph
  %indvars.iv = phi i64 [ 0, %.lr.ph ], [ %indvars.iv.next, %7 ]
  %8 = getelementptr inbounds nuw i32, ptr %6, i64 %indvars.iv
  %9 = load i32, ptr %8, align 4, !tbaa !36
  %10 = icmp sgt i32 %9, -1
  %.not = icmp slt i32 %9, %1
  %or.cond = and i1 %10, %.not
  %indvars.iv.next = add nuw nsw i64 %indvars.iv, 1
  %exitcond.not = icmp ne i64 %indvars.iv.next, %wide.trip.count
  %or.cond17.not = select i1 %or.cond, i1 %exitcond.not, i1 false
  br i1 %or.cond17.not, label %7, label %._crit_edge, !llvm.loop !115

._crit_edge:                                      ; preds = %7, %2
  %.lcssa = phi i1 [ true, %2 ], [ %or.cond, %7 ]
  ret i1 %.lcssa
}